target datalayout = "e-m:e-p270:32:32-p271:32:32-p272:64:64-i64:64-i128:128-f80:128-n8:16:32:64-S128"
target triple = "x86_64-pc-linux-gnu"

; Function Attrs: alwaysinline nounwind willreturn memory(none) uwtable
define internal zeroext i8 @av_clip_uint8_c(i32 noundef %0) #3 {
  %2 = alloca i8, align 1
  %3 = alloca i32, align 4
  store i32 %0, ptr %3, align 4, !tbaa !9
  %4 = load i32, ptr %3, align 4, !tbaa !9
  %5 = and i32 %4, -256
  %6 = icmp ne i32 %5, 0
  br i1 %6, label %7, label %12

7:                                                ; preds = %1
  %8 = load i32, ptr %3, align 4, !tbaa !9
  %9 = xor i32 %8, -1
  %10 = ashr i32 %9, 31
  %11 = trunc i32 %10 to i8
  store i8 %11, ptr %2, align 1
  br label %15

12:                                               ; preds = %1
  %13 = load i32, ptr %3, align 4, !tbaa !9
  %14 = trunc i32 %13 to i8
  store i8 %14, ptr %2, align 1
  br label %15

15:                                               ; preds = %12, %7
  %16 = load i8, ptr %2, align 1
  ret i8 %16
}

; Function Attrs: alwaysinline nounwind willreturn memory(none) uwtable
define internal i32 @av_clip_c(i32 noundef %0, i32 noundef %1, i32 noundef %2) #3 {
  %4 = alloca i32, align 4
  %5 = alloca i32, align 4
  %6 = alloca i32, align 4
  %7 = alloca i32, align 4
  store i32 %0, ptr %5, align 4, !tbaa !9
  store i32 %1, ptr %6, align 4, !tbaa !9
  store i32 %2, ptr %7, align 4, !tbaa !9
  %8 = load i32, ptr %5, align 4, !tbaa !9
  %9 = load i32, ptr %6, align 4, !tbaa !9
  %10 = icmp slt i32 %8, %9
  br i1 %10, label %11, label %13

11:                                               ; preds = %3
  %12 = load i32, ptr %6, align 4, !tbaa !9
  store i32 %12, ptr %4, align 4
  br label %21

13:                                               ; preds = %3
  %14 = load i32, ptr %5, align 4, !tbaa !9
  %15 = load i32, ptr %7, align 4, !tbaa !9
  %16 = icmp sgt i32 %14, %15
  br i1 %16, label %17, label %19

17:                                               ; preds = %13
  %18 = load i32, ptr %7, align 4, !tbaa !9
  store i32 %18, ptr %4, align 4
  br label %21

19:                                               ; preds = %13
  %20 = load i32, ptr %5, align 4, !tbaa !9
  store i32 %20, ptr %4, align 4
  br label %21

21:                                               ; preds = %19, %17, %11
  %22 = load i32, ptr %4, align 4
  ret i32 %22
}

; Function Attrs: nounwind uwtable
define internal void @prof_grad_filter_8(ptr noundef %0, ptr noundef %1, i64 noundef %2, ptr noundef %3, i64 noundef %4, i32 noundef %5, i32 noundef %6) #0 {
  %8 = alloca ptr, align 8
  %9 = alloca ptr, align 8
  %10 = alloca i64, align 8
  %11 = alloca ptr, align 8
  %12 = alloca i64, align 8
  %13 = alloca i32, align 4
  %14 = alloca i32, align 4
  %15 = alloca i32, align 4
  %16 = alloca ptr, align 8
  %17 = alloca i32, align 4
  %18 = alloca i32, align 4
  %19 = alloca ptr, align 8
  %20 = alloca i32, align 4
  store ptr %0, ptr %8, align 8, !tbaa !142
  store ptr %1, ptr %9, align 8, !tbaa !142
  store i64 %2, ptr %10, align 8, !tbaa !146
  store ptr %3, ptr %11, align 8, !tbaa !142
  store i64 %4, ptr %12, align 8, !tbaa !146
  store i32 %5, ptr %13, align 4, !tbaa !9
  store i32 %6, ptr %14, align 4, !tbaa !9
  call void @llvm.lifetime.start.p0(i64 4, ptr %15) #8
  store i32 6, ptr %15, align 4, !tbaa !9
  call void @llvm.lifetime.start.p0(i64 8, ptr %16) #8
  %21 = load ptr, ptr %11, align 8, !tbaa !142
  store ptr %21, ptr %16, align 8, !tbaa !142
  call void @llvm.lifetime.start.p0(i64 4, ptr %17) #8
  store i32 0, ptr %17, align 4, !tbaa !9
  br label %22

22:                                               ; preds = %85, %7
  %23 = load i32, ptr %17, align 4, !tbaa !9
  %24 = load i32, ptr %14, align 4, !tbaa !9
  %25 = icmp slt i32 %23, %24
  br i1 %25, label %27, label %26

26:                                               ; preds = %22
  store i32 2, ptr %18, align 4
  call void @llvm.lifetime.end.p0(i64 4, ptr %17) #8
  br label %88

27:                                               ; preds = %22
  call void @llvm.lifetime.start.p0(i64 8, ptr %19) #8
  %28 = load ptr, ptr %16, align 8, !tbaa !142
  store ptr %28, ptr %19, align 8, !tbaa !142
  call void @llvm.lifetime.start.p0(i64 4, ptr %20) #8
  store i32 0, ptr %20, align 4, !tbaa !9
  br label %29

29:                                               ; preds = %72, %27
  %30 = load i32, ptr %20, align 4, !tbaa !9
  %31 = load i32, ptr %13, align 4, !tbaa !9
  %32 = icmp slt i32 %30, %31
  br i1 %32, label %34, label %33

33:                                               ; preds = %29
  store i32 5, ptr %18, align 4
  call void @llvm.lifetime.end.p0(i64 4, ptr %20) #8
  br label %75

34:                                               ; preds = %29
  %35 = load ptr, ptr %19, align 8, !tbaa !142
  %36 = getelementptr inbounds i16, ptr %35, i64 1
  %37 = load i16, ptr %36, align 2, !tbaa !148
  %38 = sext i16 %37 to i32
  %39 = ashr i32 %38, 6
  %40 = load ptr, ptr %19, align 8, !tbaa !142
  %41 = getelementptr inbounds i16, ptr %40, i64 -1
  %42 = load i16, ptr %41, align 2, !tbaa !148
  %43 = sext i16 %42 to i32
  %44 = ashr i32 %43, 6
  %45 = sub nsw i32 %39, %44
  %46 = trunc i32 %45 to i16
  %47 = load ptr, ptr %8, align 8, !tbaa !142
  %48 = load i32, ptr %20, align 4, !tbaa !9
  %49 = sext i32 %48 to i64
  %50 = getelementptr inbounds i16, ptr %47, i64 %49
  store i16 %46, ptr %50, align 2, !tbaa !148
  %51 = load ptr, ptr %19, align 8, !tbaa !142
  %52 = load i64, ptr %12, align 8, !tbaa !146
  %53 = getelementptr inbounds i16, ptr %51, i64 %52
  %54 = load i16, ptr %53, align 2, !tbaa !148
  %55 = sext i16 %54 to i32
  %56 = ashr i32 %55, 6
  %57 = load ptr, ptr %19, align 8, !tbaa !142
  %58 = load i64, ptr %12, align 8, !tbaa !146
  %59 = sub nsw i64 0, %58
  %60 = getelementptr inbounds i16, ptr %57, i64 %59
  %61 = load i16, ptr %60, align 2, !tbaa !148
  %62 = sext i16 %61 to i32
  %63 = ashr i32 %62, 6
  %64 = sub nsw i32 %56, %63
  %65 = trunc i32 %64 to i16
  %66 = load ptr, ptr %9, align 8, !tbaa !142
  %67 = load i32, ptr %20, align 4, !tbaa !9
  %68 = sext i32 %67 to i64
  %69 = getelementptr inbounds i16, ptr %66, i64 %68
  store i16 %65, ptr %69, align 2, !tbaa !148
  %70 = load ptr, ptr %19, align 8, !tbaa !142
  %71 = getelementptr inbounds nuw i16, ptr %70, i32 1
  store ptr %71, ptr %19, align 8, !tbaa !142
  br label %72

72:                                               ; preds = %34
  %73 = load i32, ptr %20, align 4, !tbaa !9
  %74 = add nsw i32 %73, 1
  store i32 %74, ptr %20, align 4, !tbaa !9
  br label %29, !llvm.loop !779

75:                                               ; preds = %33
  %76 = load i64, ptr %10, align 8, !tbaa !146
  %77 = load ptr, ptr %8, align 8, !tbaa !142
  %78 = getelementptr inbounds i16, ptr %77, i64 %76
  store ptr %78, ptr %8, align 8, !tbaa !142
  %79 = load i64, ptr %10, align 8, !tbaa !146
  %80 = load ptr, ptr %9, align 8, !tbaa !142
  %81 = getelementptr inbounds i16, ptr %80, i64 %79
  store ptr %81, ptr %9, align 8, !tbaa !142
  %82 = load i64, ptr %12, align 8, !tbaa !146
  %83 = load ptr, ptr %16, align 8, !tbaa !142
  %84 = getelementptr inbounds i16, ptr %83, i64 %82
  store ptr %84, ptr %16, align 8, !tbaa !142
  call void @llvm.lifetime.end.p0(i64 8, ptr %19) #8
  br label %85

85:                                               ; preds = %75
  %86 = load i32, ptr %17, align 4, !tbaa !9
  %87 = add nsw i32 %86, 1
  store i32 %87, ptr %17, align 4, !tbaa !9
  br label %22, !llvm.loop !780

88:                                               ; preds = %26
  call void @llvm.lifetime.end.p0(i64 8, ptr %16) #8
  call void @llvm.lifetime.end.p0(i64 4, ptr %15) #8
  ret void
}

; Function Attrs: nounwind uwtable
define internal void @apply_prof_uni_8(ptr noundef %0, i64 noundef %1, ptr noundef %2, ptr noundef %3, ptr noundef %4) #0 {
  %6 = alloca ptr, align 8
  %7 = alloca i64, align 8
  %8 = alloca ptr, align 8
  %9 = alloca ptr, align 8
  %10 = alloca ptr, align 8
  %11 = alloca i32, align 4
  %12 = alloca ptr, align 8
  %13 = alloca i64, align 8
  %14 = alloca i32, align 4
  %15 = alloca i32, align 4
  %16 = alloca [16 x i16], align 16
  %17 = alloca [16 x i16], align 16
  %18 = alloca i32, align 4
  %19 = alloca i32, align 4
  %20 = alloca i32, align 4
  %21 = alloca i32, align 4
  %22 = alloca i32, align 4
  %23 = alloca i32, align 4
  store ptr %0, ptr %6, align 8, !tbaa !144
  store i64 %1, ptr %7, align 8, !tbaa !146
  store ptr %2, ptr %8, align 8, !tbaa !142
  store ptr %3, ptr %9, align 8, !tbaa !142
  store ptr %4, ptr %10, align 8, !tbaa !142
  call void @llvm.lifetime.start.p0(i64 4, ptr %11) #8
  store i32 8192, ptr %11, align 4, !tbaa !9
  call void @llvm.lifetime.start.p0(i64 8, ptr %12) #8
  %24 = load ptr, ptr %6, align 8, !tbaa !144
  store ptr %24, ptr %12, align 8, !tbaa !144
  call void @llvm.lifetime.start.p0(i64 8, ptr %13) #8
  %25 = load i64, ptr %7, align 8, !tbaa !146
  %26 = udiv i64 %25, 1
  store i64 %26, ptr %13, align 8, !tbaa !146
  call void @llvm.lifetime.start.p0(i64 4, ptr %14) #8
  store i32 6, ptr %14, align 4, !tbaa !9
  call void @llvm.lifetime.start.p0(i64 4, ptr %15) #8
  store i32 32, ptr %15, align 4, !tbaa !9
  call void @llvm.lifetime.start.p0(i64 32, ptr %16) #8
  call void @llvm.lifetime.start.p0(i64 32, ptr %17) #8
  %27 = getelementptr inbounds [16 x i16], ptr %16, i64 0, i64 0
  %28 = getelementptr inbounds [16 x i16], ptr %17, i64 0, i64 0
  %29 = load ptr, ptr %8, align 8, !tbaa !142
  call void @prof_grad_filter_8(ptr noundef %27, ptr noundef %28, i64 noundef 4, ptr noundef %29, i64 noundef 128, i32 noundef 4, i32 noundef 4)
  call void @llvm.lifetime.start.p0(i64 4, ptr %18) #8
  store i32 0, ptr %18, align 4, !tbaa !9
  br label %30

30:                                               ; preds = %95, %5
  %31 = load i32, ptr %18, align 4, !tbaa !9
  %32 = icmp slt i32 %31, 4
  br i1 %32, label %34, label %33

33:                                               ; preds = %30
  store i32 2, ptr %19, align 4
  call void @llvm.lifetime.end.p0(i64 4, ptr %18) #8
  br label %98

34:                                               ; preds = %30
  call void @llvm.lifetime.start.p0(i64 4, ptr %20) #8
  store i32 0, ptr %20, align 4, !tbaa !9
  br label %35

35:                                               ; preds = %86, %34
  %36 = load i32, ptr %20, align 4, !tbaa !9
  %37 = icmp slt i32 %36, 4
  br i1 %37, label %39, label %38

38:                                               ; preds = %35
  store i32 5, ptr %19, align 4
  call void @llvm.lifetime.end.p0(i64 4, ptr %20) #8
  br label %89

39:                                               ; preds = %35
  call void @llvm.lifetime.start.p0(i64 4, ptr %21) #8
  %40 = load i32, ptr %18, align 4, !tbaa !9
  %41 = mul nsw i32 %40, 4
  %42 = load i32, ptr %20, align 4, !tbaa !9
  %43 = add nsw i32 %41, %42
  store i32 %43, ptr %21, align 4, !tbaa !9
  call void @llvm.lifetime.start.p0(i64 4, ptr %22) #8
  %44 = load i32, ptr %21, align 4, !tbaa !9
  %45 = sext i32 %44 to i64
  %46 = getelementptr inbounds [16 x i16], ptr %16, i64 0, i64 %45
  %47 = load i16, ptr %46, align 2, !tbaa !148
  %48 = sext i16 %47 to i32
  %49 = load ptr, ptr %9, align 8, !tbaa !142
  %50 = load i32, ptr %21, align 4, !tbaa !9
  %51 = sext i32 %50 to i64
  %52 = getelementptr inbounds i16, ptr %49, i64 %51
  %53 = load i16, ptr %52, align 2, !tbaa !148
  %54 = sext i16 %53 to i32
  %55 = mul nsw i32 %48, %54
  %56 = load i32, ptr %21, align 4, !tbaa !9
  %57 = sext i32 %56 to i64
  %58 = getelementptr inbounds [16 x i16], ptr %17, i64 0, i64 %57
  %59 = load i16, ptr %58, align 2, !tbaa !148
  %60 = sext i16 %59 to i32
  %61 = load ptr, ptr %10, align 8, !tbaa !142
  %62 = load i32, ptr %21, align 4, !tbaa !9
  %63 = sext i32 %62 to i64
  %64 = getelementptr inbounds i16, ptr %61, i64 %63
  %65 = load i16, ptr %64, align 2, !tbaa !148
  %66 = sext i16 %65 to i32
  %67 = mul nsw i32 %60, %66
  %68 = add nsw i32 %55, %67
  store i32 %68, ptr %22, align 4, !tbaa !9
  call void @llvm.lifetime.start.p0(i64 4, ptr %23) #8
  %69 = load ptr, ptr %8, align 8, !tbaa !142
  %70 = load i32, ptr %20, align 4, !tbaa !9
  %71 = sext i32 %70 to i64
  %72 = getelementptr inbounds i16, ptr %69, i64 %71
  %73 = load i16, ptr %72, align 2, !tbaa !148
  %74 = sext i16 %73 to i32
  %75 = load i32, ptr %22, align 4, !tbaa !9
  %76 = call i32 @av_clip_c(i32 noundef %75, i32 noundef -8192, i32 noundef 8191) #9
  %77 = add nsw i32 %74, %76
  store i32 %77, ptr %23, align 4, !tbaa !9
  %78 = load i32, ptr %23, align 4, !tbaa !9
  %79 = add nsw i32 %78, 32
  %80 = ashr i32 %79, 6
  %81 = call zeroext i8 @av_clip_uint8_c(i32 noundef %80) #9
  %82 = load ptr, ptr %12, align 8, !tbaa !144
  %83 = load i32, ptr %20, align 4, !tbaa !9
  %84 = sext i32 %83 to i64
  %85 = getelementptr inbounds i8, ptr %82, i64 %84
  store i8 %81, ptr %85, align 1, !tbaa !152
  call void @llvm.lifetime.end.p0(i64 4, ptr %23) #8
  call void @llvm.lifetime.end.p0(i64 4, ptr %22) #8
  call void @llvm.lifetime.end.p0(i64 4, ptr %21) #8
  br label %86

86:                                               ; preds = %39
  %87 = load i32, ptr %20, align 4, !tbaa !9
  %88 = add nsw i32 %87, 1
  store i32 %88, ptr %20, align 4, !tbaa !9
  br label %35, !llvm.loop !765

89:                                               ; preds = %38
  %90 = load ptr, ptr %8, align 8, !tbaa !142
  %91 = getelementptr inbounds i16, ptr %90, i64 128
  store ptr %91, ptr %8, align 8, !tbaa !142
  %92 = load i64, ptr %13, align 8, !tbaa !146
  %93 = load ptr, ptr %12, align 8, !tbaa !144
  %94 = getelementptr inbounds i8, ptr %93, i64 %92
  store ptr %94, ptr %12, align 8, !tbaa !144
  br label %95

95:                                               ; preds = %89
  %96 = load i32, ptr %18, align 4, !tbaa !9
  %97 = add nsw i32 %96, 1
  store i32 %97, ptr %18, align 4, !tbaa !9
  br label %30, !llvm.loop !766

98:                                               ; preds = %33
  call void @llvm.lifetime.end.p0(i64 32, ptr %17) #8
  call void @llvm.lifetime.end.p0(i64 32, ptr %16) #8
  call void @llvm.lifetime.end.p0(i64 4, ptr %15) #8
  call void @llvm.lifetime.end.p0(i64 4, ptr %14) #8
  call void @llvm.lifetime.end.p0(i64 8, ptr %13) #8
  call void @llvm.lifetime.end.p0(i64 8, ptr %12) #8
  call void @llvm.lifetime.end.p0(i64 4, ptr %11) #8
  ret void
}