; Function Attrs: nofree norecurse nosync nounwind memory(argmem: readwrite) uwtable
define internal void @apply_prof_uni_8(ptr noundef writeonly captures(none) %0, i64 noundef %1, ptr noundef readonly captures(none) %2, ptr noundef readonly captures(none) %3, ptr noundef readonly captures(none) %4) #2 {
  %6 = alloca [16 x i16], align 16
  %7 = alloca [16 x i16], align 16
  call void @llvm.lifetime.start.p0(i64 32, ptr nonnull %6) #14
  call void @llvm.lifetime.start.p0(i64 32, ptr nonnull %7) #14
  br label %.preheader.us.i

.preheader.us.i:                                  ; preds = %._crit_edge.us.i, %5
  %.02535.us.i = phi i32 [ %26, %._crit_edge.us.i ], [ 0, %5 ]
  %.02634.us.i = phi ptr [ %25, %._crit_edge.us.i ], [ %2, %5 ]
  %.02733.us.i = phi ptr [ %23, %._crit_edge.us.i ], [ %6, %5 ]
  %.02832.us.i = phi ptr [ %24, %._crit_edge.us.i ], [ %7, %5 ]
  br label %8

8:                                                ; preds = %8, %.preheader.us.i
  %indvars.iv.i = phi i64 [ 0, %.preheader.us.i ], [ %indvars.iv.next.i, %8 ]
  %.02430.us.i = phi ptr [ %.02634.us.i, %.preheader.us.i ], [ %9, %8 ]
  %9 = getelementptr inbounds nuw i8, ptr %.02430.us.i, i64 2
  %10 = load i16, ptr %9, align 2, !tbaa !124
  %11 = ashr i16 %10, 6
  %12 = getelementptr inbounds i8, ptr %.02430.us.i, i64 -2
  %13 = load i16, ptr %12, align 2, !tbaa !124
  %14 = ashr i16 %13, 6
  %narrow.us.i = sub nsw i16 %11, %14
  %15 = getelementptr inbounds nuw i16, ptr %.02733.us.i, i64 %indvars.iv.i
  store i16 %narrow.us.i, ptr %15, align 2, !tbaa !124
  %16 = getelementptr inbounds nuw i8, ptr %.02430.us.i, i64 256
  %17 = load i16, ptr %16, align 2, !tbaa !124
  %18 = ashr i16 %17, 6
  %19 = getelementptr inbounds i8, ptr %.02430.us.i, i64 -256
  %20 = load i16, ptr %19, align 2, !tbaa !124
  %21 = ashr i16 %20, 6
  %narrow29.us.i = sub nsw i16 %18, %21
  %22 = getelementptr inbounds nuw i16, ptr %.02832.us.i, i64 %indvars.iv.i
  store i16 %narrow29.us.i, ptr %22, align 2, !tbaa !124
  %indvars.iv.next.i = add nuw nsw i64 %indvars.iv.i, 1
  %exitcond.not.i = icmp eq i64 %indvars.iv.next.i, 4
  br i1 %exitcond.not.i, label %._crit_edge.us.i, label %8, !llvm.loop !734

._crit_edge.us.i:                                 ; preds = %8
  %23 = getelementptr inbounds nuw i8, ptr %.02733.us.i, i64 8
  %24 = getelementptr inbounds nuw i8, ptr %.02832.us.i, i64 8
  %25 = getelementptr inbounds nuw i8, ptr %.02634.us.i, i64 256
  %26 = add nuw nsw i32 %.02535.us.i, 1
  %exitcond39.not.i = icmp eq i32 %26, 4
  br i1 %exitcond39.not.i, label %.preheader, label %.preheader.us.i, !llvm.loop !735

.preheader:                                       ; preds = %._crit_edge.us.i, %prof_grad_filter_8.exit
  %indvars.iv32 = phi i64 [ %indvars.iv.next33, %prof_grad_filter_8.exit ], [ 0, %._crit_edge.us.i ]
  %.030 = phi ptr [ %29, %prof_grad_filter_8.exit ], [ %2, %._crit_edge.us.i ]
  %.02329 = phi ptr [ %30, %prof_grad_filter_8.exit ], [ %0, %._crit_edge.us.i ]
  %27 = shl nuw nsw i64 %indvars.iv32, 2
  br label %31

28:                                               ; preds = %prof_grad_filter_8.exit
  call void @llvm.lifetime.end.p0(i64 32, ptr nonnull %7) #14
  call void @llvm.lifetime.end.p0(i64 32, ptr nonnull %6) #14
  ret void

prof_grad_filter_8.exit:                          ; preds = %31
  %29 = getelementptr inbounds nuw i8, ptr %.030, i64 256
  %30 = getelementptr inbounds i8, ptr %.02329, i64 %1
  %indvars.iv.next33 = add nuw nsw i64 %indvars.iv32, 1
  %exitcond35.not = icmp eq i64 %indvars.iv.next33, 4
  br i1 %exitcond35.not, label %28, label %.preheader, !llvm.loop !738

31:                                               ; preds = %.preheader, %31
  %indvars.iv = phi i64 [ 0, %.preheader ], [ %indvars.iv.next, %31 ]
  %32 = add nuw nsw i64 %indvars.iv, %27
  %33 = getelementptr inbounds nuw [16 x i16], ptr %6, i64 0, i64 %32
  %34 = load i16, ptr %33, align 2, !tbaa !124
  %35 = sext i16 %34 to i32
  %36 = getelementptr inbounds nuw i16, ptr %3, i64 %32
  %37 = load i16, ptr %36, align 2, !tbaa !124
  %38 = sext i16 %37 to i32
  %39 = mul nsw i32 %38, %35
  %40 = getelementptr inbounds nuw [16 x i16], ptr %7, i64 0, i64 %32
  %41 = load i16, ptr %40, align 2, !tbaa !124
  %42 = sext i16 %41 to i32
  %43 = getelementptr inbounds nuw i16, ptr %4, i64 %32
  %44 = load i16, ptr %43, align 2, !tbaa !124
  %45 = sext i16 %44 to i32
  %46 = mul nsw i32 %45, %42
  %47 = add nsw i32 %46, %39
  %48 = getelementptr inbounds nuw i16, ptr %.030, i64 %indvars.iv
  %49 = load i16, ptr %48, align 2, !tbaa !124
  %50 = sext i16 %49 to i32
  %51 = tail call i32 @llvm.smax.i32(i32 %47, i32 -8192)
  %.0.i = tail call i32 @llvm.smin.i32(i32 %51, i32 8191)
  %52 = add nsw i32 %50, 32
  %53 = add nsw i32 %52, %.0.i
  %54 = ashr i32 %53, 6
  %.not.i = icmp ult i32 %54, 256
  %isnotneg.i = icmp sgt i32 %54, -1
  %55 = sext i1 %isnotneg.i to i8
  %56 = trunc nuw i32 %54 to i8
  %.0.i26 = select i1 %.not.i, i8 %56, i8 %55
  %57 = getelementptr inbounds nuw i8, ptr %.02329, i64 %indvars.iv
  store i8 %.0.i26, ptr %57, align 1, !tbaa !128
  %indvars.iv.next = add nuw nsw i64 %indvars.iv, 1
  %exitcond.not = icmp eq i64 %indvars.iv.next, 4
  br i1 %exitcond.not, label %prof_grad_filter_8.exit, label %31, !llvm.loop !739
}